target datalayout = "e-m:e-p270:32:32-p271:32:32-p272:64:64-i64:64-i128:128-f80:128-n8:16:32:64-S128"
target triple = "x86_64-pc-linux-gnu"

@.str.14 = private unnamed_addr constant [8 x i8] c"PST8PDT\00", align 1
@.str.15 = private unnamed_addr constant [8 x i8] c"MST7MDT\00", align 1
@.str.16 = private unnamed_addr constant [8 x i8] c"CST6CDT\00", align 1
@.str.17 = private unnamed_addr constant [8 x i8] c"EST5EDT\00", align 1

; Function Attrs: mustprogress nounwind uwtable
define internal noundef signext i8 @_ZL14isValidOlsonIDPKc(ptr noundef %0) #0 {
  %2 = alloca ptr, align 8
  %3 = alloca i32, align 4
  %4 = alloca i32, align 4
  store ptr %0, ptr %2, align 8, !tbaa !17
  call void @llvm.lifetime.start.p0(i64 4, ptr %3) #14
  store i32 0, ptr %3, align 4, !tbaa !14
  call void @llvm.lifetime.start.p0(i64 4, ptr %4) #14
  store i32 0, ptr %4, align 4, !tbaa !14
  br label %5

5:                                                ; preds = %38, %1
  %6 = load ptr, ptr %2, align 8, !tbaa !17
  %7 = load i32, ptr %3, align 4, !tbaa !14
  %8 = sext i32 %7 to i64
  %9 = getelementptr inbounds i8, ptr %6, i64 %8
  %10 = load i8, ptr %9, align 1, !tbaa !28
  %11 = icmp ne i8 %10, 0
  br i1 %11, label %12, label %36

12:                                               ; preds = %5
  %13 = load ptr, ptr %2, align 8, !tbaa !17
  %14 = load i32, ptr %3, align 4, !tbaa !14
  %15 = sext i32 %14 to i64
  %16 = getelementptr inbounds i8, ptr %13, i64 %15
  %17 = load i8, ptr %16, align 1, !tbaa !28
  %18 = sext i8 %17 to i32
  %19 = icmp slt i32 %18, 48
  br i1 %19, label %28, label %20

20:                                               ; preds = %12
  %21 = load ptr, ptr %2, align 8, !tbaa !17
  %22 = load i32, ptr %3, align 4, !tbaa !14
  %23 = sext i32 %22 to i64
  %24 = getelementptr inbounds i8, ptr %21, i64 %23
  %25 = load i8, ptr %24, align 1, !tbaa !28
  %26 = sext i8 %25 to i32
  %27 = icmp slt i32 57, %26
  br i1 %27, label %28, label %36

28:                                               ; preds = %20, %12
  %29 = load ptr, ptr %2, align 8, !tbaa !17
  %30 = load i32, ptr %3, align 4, !tbaa !14
  %31 = sext i32 %30 to i64
  %32 = getelementptr inbounds i8, ptr %29, i64 %31
  %33 = load i8, ptr %32, align 1, !tbaa !28
  %34 = sext i8 %33 to i32
  %35 = icmp ne i32 %34, 44
  br label %36

36:                                               ; preds = %28, %20, %5
  %37 = phi i1 [ false, %20 ], [ false, %5 ], [ %35, %28 ]
  br i1 %37, label %38, label %41

38:                                               ; preds = %36
  %39 = load i32, ptr %3, align 4, !tbaa !14
  %40 = add nsw i32 %39, 1
  store i32 %40, ptr %3, align 4, !tbaa !14
  br label %5, !llvm.loop !42

41:                                               ; preds = %36
  %42 = load i32, ptr %3, align 4, !tbaa !14
  %43 = add nsw i32 %42, 2
  store i32 %43, ptr %4, align 4, !tbaa !14
  br label %44

44:                                               ; preds = %73, %41
  %45 = load ptr, ptr %2, align 8, !tbaa !17
  %46 = load i32, ptr %3, align 4, !tbaa !14
  %47 = sext i32 %46 to i64
  %48 = getelementptr inbounds i8, ptr %45, i64 %47
  %49 = load i8, ptr %48, align 1, !tbaa !28
  %50 = icmp ne i8 %49, 0
  br i1 %50, label %51, label %71

51:                                               ; preds = %44
  %52 = load ptr, ptr %2, align 8, !tbaa !17
  %53 = load i32, ptr %3, align 4, !tbaa !14
  %54 = sext i32 %53 to i64
  %55 = getelementptr inbounds i8, ptr %52, i64 %54
  %56 = load i8, ptr %55, align 1, !tbaa !28
  %57 = sext i8 %56 to i32
  %58 = icmp sle i32 48, %57
  br i1 %58, label %59, label %71

59:                                               ; preds = %51
  %60 = load ptr, ptr %2, align 8, !tbaa !17
  %61 = load i32, ptr %3, align 4, !tbaa !14
  %62 = sext i32 %61 to i64
  %63 = getelementptr inbounds i8, ptr %60, i64 %62
  %64 = load i8, ptr %63, align 1, !tbaa !28
  %65 = sext i8 %64 to i32
  %66 = icmp sle i32 %65, 57
  br i1 %66, label %67, label %71

67:                                               ; preds = %59
  %68 = load i32, ptr %3, align 4, !tbaa !14
  %69 = load i32, ptr %4, align 4, !tbaa !14
  %70 = icmp slt i32 %68, %69
  br label %71

71:                                               ; preds = %67, %59, %51, %44
  %72 = phi i1 [ false, %59 ], [ false, %51 ], [ false, %44 ], [ %70, %67 ]
  br i1 %72, label %73, label %76

73:                                               ; preds = %71
  %74 = load i32, ptr %3, align 4, !tbaa !14
  %75 = add nsw i32 %74, 1
  store i32 %75, ptr %3, align 4, !tbaa !14
  br label %44, !llvm.loop !44

76:                                               ; preds = %71
  %77 = load ptr, ptr %2, align 8, !tbaa !17
  %78 = load i32, ptr %3, align 4, !tbaa !14
  %79 = sext i32 %78 to i64
  %80 = getelementptr inbounds i8, ptr %77, i64 %79
  %81 = load i8, ptr %80, align 1, !tbaa !28
  %82 = sext i8 %81 to i32
  %83 = icmp eq i32 %82, 0
  br i1 %83, label %100, label %84

84:                                               ; preds = %76
  %85 = load ptr, ptr %2, align 8, !tbaa !17
  %86 = call i32 @strcmp(ptr noundef %85, ptr noundef @.str.14) #17
  %87 = icmp eq i32 %86, 0
  br i1 %87, label %100, label %88

88:                                               ; preds = %84
  %89 = load ptr, ptr %2, align 8, !tbaa !17
  %90 = call i32 @strcmp(ptr noundef %89, ptr noundef @.str.15) #17
  %91 = icmp eq i32 %90, 0
  br i1 %91, label %100, label %92

92:                                               ; preds = %88
  %93 = load ptr, ptr %2, align 8, !tbaa !17
  %94 = call i32 @strcmp(ptr noundef %93, ptr noundef @.str.16) #17
  %95 = icmp eq i32 %94, 0
  br i1 %95, label %100, label %96

96:                                               ; preds = %92
  %97 = load ptr, ptr %2, align 8, !tbaa !17
  %98 = call i32 @strcmp(ptr noundef %97, ptr noundef @.str.17) #17
  %99 = icmp eq i32 %98, 0
  br label %100

100:                                              ; preds = %96, %92, %88, %84, %76
  %101 = phi i1 [ true, %92 ], [ true, %88 ], [ true, %84 ], [ true, %76 ], [ %99, %96 ]
  %102 = zext i1 %101 to i8
  call void @llvm.lifetime.end.p0(i64 4, ptr %4) #14
  call void @llvm.lifetime.end.p0(i64 4, ptr %3) #14
  ret i8 %102
}