; Function Attrs: mustprogress nofree nounwind willreturn memory(argmem: read) uwtable
define internal fastcc noundef signext range(i8 0, 2) i8 @_ZL14isValidOlsonIDPKc(ptr noundef readonly captures(none) %0) unnamed_addr #23 {
  %2 = load i8, ptr %0, align 1, !tbaa !21
  %.not36 = icmp eq i8 %2, 0
  br i1 %.not36, label %.critedge, label %.lr.ph

.lr.ph:                                           ; preds = %1, %5
  %indvars.iv = phi i64 [ %indvars.iv.next, %5 ], [ 0, %1 ]
  %3 = phi i8 [ %8, %5 ], [ %2, %1 ]
  %.037 = phi i32 [ %6, %5 ], [ 0, %1 ]
  %4 = add i8 %3, -48
  %or.cond = icmp ult i8 %4, 10
  %.not30 = icmp eq i8 %3, 44
  %or.cond35 = or i1 %.not30, %or.cond
  br i1 %or.cond35, label %.critedge.loopexit.split.loop.exit, label %5

5:                                                ; preds = %.lr.ph
  %indvars.iv.next = add nuw nsw i64 %indvars.iv, 1
  %6 = add nuw nsw i32 %.037, 1
  %7 = getelementptr inbounds nuw i8, ptr %0, i64 %indvars.iv.next
  %8 = load i8, ptr %7, align 1, !tbaa !21
  %.not = icmp eq i8 %8, 0
  br i1 %.not, label %.critedge, label %.lr.ph, !llvm.loop !37

.critedge.loopexit.split.loop.exit:               ; preds = %.lr.ph
  %9 = trunc nuw nsw i64 %indvars.iv to i32
  br label %.critedge

.critedge:                                        ; preds = %5, %.critedge.loopexit.split.loop.exit, %1
  %.0.lcssa = phi i32 [ 0, %1 ], [ %9, %.critedge.loopexit.split.loop.exit ], [ %6, %5 ]
  %10 = add nuw nsw i32 %.0.lcssa, 2
  %11 = zext i32 %.0.lcssa to i64
  %12 = zext i32 %10 to i64
  br label %13

13:                                               ; preds = %13, %.critedge
  %indvars.iv40 = phi i64 [ %indvars.iv.next41, %13 ], [ %11, %.critedge ]
  %14 = getelementptr inbounds nuw i8, ptr %0, i64 %indvars.iv40
  %15 = load i8, ptr %14, align 1, !tbaa !21
  %16 = add i8 %15, -48
  %or.cond33 = icmp ult i8 %16, 10
  %17 = icmp samesign ult i64 %indvars.iv40, %12
  %or.cond34 = select i1 %or.cond33, i1 %17, i1 false
  %indvars.iv.next41 = add nuw nsw i64 %indvars.iv40, 1
  br i1 %or.cond34, label %13, label %.critedge2, !llvm.loop !38

.critedge2:                                       ; preds = %13
  %18 = icmp eq i8 %15, 0
  br i1 %18, label %32, label %19

19:                                               ; preds = %.critedge2
  %20 = tail call i32 @strcmp(ptr noundef nonnull dereferenceable(1) %0, ptr noundef nonnull dereferenceable(8) @.str.14) #35
  %21 = icmp eq i32 %20, 0
  br i1 %21, label %32, label %22

22:                                               ; preds = %19
  %23 = tail call i32 @strcmp(ptr noundef nonnull dereferenceable(1) %0, ptr noundef nonnull dereferenceable(8) @.str.15) #35
  %24 = icmp eq i32 %23, 0
  br i1 %24, label %32, label %25

25:                                               ; preds = %22
  %26 = tail call i32 @strcmp(ptr noundef nonnull dereferenceable(1) %0, ptr noundef nonnull dereferenceable(8) @.str.16) #35
  %27 = icmp eq i32 %26, 0
  br i1 %27, label %32, label %28

28:                                               ; preds = %25
  %29 = tail call i32 @strcmp(ptr noundef nonnull dereferenceable(1) %0, ptr noundef nonnull dereferenceable(8) @.str.17) #35
  %30 = icmp eq i32 %29, 0
  %31 = zext i1 %30 to i8
  br label %32

32:                                               ; preds = %28, %25, %22, %19, %.critedge2
  %33 = phi i8 [ 1, %25 ], [ 1, %22 ], [ 1, %19 ], [ 1, %.critedge2 ], [ %31, %28 ]
  ret i8 %33
}